Certificate:
    Data:
        Version: 3 (0x2)
        Serial Number: 1 (0x1)
    Signature Algorithm: sha1WithRSAEncryption
        Issuer: C=FR, ST=Seine-Maritime, L=Rouen, O=D\xC3\xA9partement informatique, CN=ca/emailAddress=ca@univ-rouen.fr
        Validity
            Not Before: Feb 26 18:27:19 2013 GMT
            Not After : Feb 26 18:27:19 2014 GMT
        Subject: C=FR, ST=Seine-Maritime, L=Rouen, O=D\xC3\xA9partement informatique, CN=cassl/emailAddress=cassl@univ-rouen.fr
        Subject Public Key Info:
            Public Key Algorithm: rsaEncryption
                Public-Key: (2048 bit)
                Modulus:
                    00:d8:46:4e:23:17:fa:95:23:5a:bb:93:0a:34:ab:
                    12:1c:ff:3a:e6:2f:fd:11:88:a1:f4:0e:d2:6d:59:
                    90:12:1e:5a:f7:c6:f3:3e:1b:34:c1:06:7f:e7:7e:
                    39:cb:ec:63:72:d9:b3:91:b6:db:02:59:08:9e:94:
                    f6:f4:62:66:c2:b2:45:ea:62:55:aa:2b:fa:a8:11:
                    b2:d4:a7:65:1d:ef:cb:3a:46:f3:bb:53:90:c4:48:
                    ac:e6:23:49:0f:62:c3:55:ac:2a:42:29:46:12:53:
                    6b:0a:5a:a0:f1:54:d3:a4:2a:8f:94:bf:68:9a:5a:
                    97:75:9f:24:4c:9f:79:9c:cf:75:40:2e:d8:bc:15:
                    ba:e0:5d:c0:8b:ea:e9:67:25:40:d0:fc:a5:b9:04:
                    30:3b:28:2d:ce:e2:25:6c:69:bb:cc:1c:a7:97:ee:
                    b6:f3:dc:5a:58:fd:b7:81:77:f1:73:7f:9b:9e:95:
                    4f:71:ec:e1:5a:d9:aa:45:d9:d8:48:60:90:a1:66:
                    d0:04:53:b1:56:d1:16:1b:f2:9f:bb:22:d9:92:6d:
                    a3:8b:7d:dd:4d:34:1a:91:14:a7:c6:f6:fc:2b:7e:
                    14:45:a8:67:f4:25:8c:47:52:e0:36:13:d8:49:fd:
                    d9:01:e9:a6:b4:ce:4b:bb:93:ce:73:b7:32:ce:c8:
                    71:cb
                Exponent: 65537 (0x10001)
        X509v3 extensions:
            Netscape Comment: 
                CA SSL
            X509v3 Basic Constraints: critical
                CA:TRUE, pathlen:0
            X509v3 Subject Key Identifier: 
                A7:D4:F4:AF:63:0A:82:41:5B:BC:B9:47:3B:9F:BC:08:B8:66:C5:25
            X509v3 Authority Key Identifier: 
                keyid:FD:05:49:B9:33:8D:1F:A8:D2:E1:22:C2:CE:5D:7A:10:B5:73:97:CB
                DirName:/C=FR/ST=Seine-Maritime/L=Rouen/O=D\xC3\xA9partement informatique/CN=ca/emailAddress=ca@univ-rouen.fr
                serial:DD:EE:4F:93:44:97:11:F5

            X509v3 Issuer Alternative Name: 
                <EMPTY>

            X509v3 Key Usage: 
                Certificate Sign, CRL Sign
            Netscape Cert Type: 
                SSL CA
    Signature Algorithm: sha1WithRSAEncryption
         66:3f:67:40:78:3c:64:a1:17:81:70:78:52:eb:6c:d6:f1:1f:
         10:d9:df:45:0d:ac:8b:fb:26:d5:bc:62:7c:b4:4d:4d:2c:6e:
         e6:e2:0a:a3:b8:72:cc:4b:82:5b:4a:12:44:8b:63:0e:23:4b:
         f5:ee:cd:09:56:e1:71:db:ad:7f:e4:ee:47:42:bf:3b:25:fd:
         d4:3a:dc:0d:34:48:9a:2e:67:40:0f:af:94:08:64:10:6b:ff:
         66:ca:7d:4d:19:c3:e4:a6:f2:5e:52:b7:b8:46:7d:81:eb:2d:
         00:03:db:9c:e5:d1:7c:bf:5f:97:3e:04:96:0b:66:cb:f2:83:
         26:97:a0:bd:a1:b8:34:73:9b:dd:42:b7:e6:39:b6:9a:0e:68:
         c9:a1:80:47:91:68:68:c2:e6:33:40:56:3b:08:5e:1b:47:4a:
         a8:71:6d:b0:d4:60:b6:34:c9:58:c4:18:10:16:24:44:95:bd:
         68:0f:7a:59:f3:49:31:7f:37:c6:20:8b:1a:b8:bc:e2:3b:af:
         36:f3:b5:2f:80:ec:82:b5:b1:55:e1:c0:8e:52:55:50:29:bc:
         91:76:4b:4f:37:b9:74:5e:a9:a6:26:2f:22:ea:75:ec:d6:8f:
         2e:e7:82:47:45:53:79:c9:2b:91:b6:a5:17:82:c1:f7:8b:0a:
         a9:11:6b:4e
-----BEGIN CERTIFICATE-----
MIIEzjCCA7agAwIBAgIBATANBgkqhkiG9w0BAQUFADCBiDELMAkGA1UEBhMCRlIx
FzAVBgNVBAgTDlNlaW5lLU1hcml0aW1lMQ4wDAYDVQQHEwVSb3VlbjEiMCAGA1UE
ChQZRMOpcGFydGVtZW50IGluZm9ybWF0aXF1ZTELMAkGA1UEAxMCY2ExHzAdBgkq
hkiG9w0BCQEWEGNhQHVuaXYtcm91ZW4uZnIwHhcNMTMwMjI2MTgyNzE5WhcNMTQw
MjI2MTgyNzE5WjCBjjELMAkGA1UEBhMCRlIxFzAVBgNVBAgTDlNlaW5lLU1hcml0
aW1lMQ4wDAYDVQQHEwVSb3VlbjEiMCAGA1UEChQZRMOpcGFydGVtZW50IGluZm9y
bWF0aXF1ZTEOMAwGA1UEAxMFY2Fzc2wxIjAgBgkqhkiG9w0BCQEWE2Nhc3NsQHVu
aXYtcm91ZW4uZnIwggEiMA0GCSqGSIb3DQEBAQUAA4IBDwAwggEKAoIBAQDYRk4j
F/qVI1q7kwo0qxIc/zrmL/0RiKH0DtJtWZASHlr3xvM+GzTBBn/nfjnL7GNy2bOR
ttsCWQielPb0YmbCskXqYlWqK/qoEbLUp2Ud78s6RvO7U5DESKzmI0kPYsNVrCpC
KUYSU2sKWqDxVNOkKo+Uv2iaWpd1nyRMn3mcz3VALti8FbrgXcCL6ulnJUDQ/KW5
BDA7KC3O4iVsabvMHKeX7rbz3FpY/beBd/Fzf5uelU9x7OFa2apF2dhIYJChZtAE
U7FW0RYb8p+7ItmSbaOLfd1NNBqRFKfG9vwrfhRFqGf0JYxHUuA2E9hJ/dkB6aa0
zku7k85ztzLOyHHLAgMBAAGjggE5MIIBNTAVBglghkgBhvhCAQ0ECBYGQ0EgU1NM
MBIGA1UdEwEB/wQIMAYBAf8CAQAwHQYDVR0OBBYEFKfU9K9jCoJBW7y5RzufvAi4
ZsUlMIG9BgNVHSMEgbUwgbKAFP0FSbkzjR+o0uEiws5dehC1c5fLoYGOpIGLMIGI
MQswCQYDVQQGEwJGUjEXMBUGA1UECBMOU2VpbmUtTWFyaXRpbWUxDjAMBgNVBAcT
BVJvdWVuMSIwIAYDVQQKFBlEw6lwYXJ0ZW1lbnQgaW5mb3JtYXRpcXVlMQswCQYD
VQQDEwJjYTEfMB0GCSqGSIb3DQEJARYQY2FAdW5pdi1yb3Vlbi5mcoIJAN3uT5NE
lxH1MAkGA1UdEgQCMAAwCwYDVR0PBAQDAgEGMBEGCWCGSAGG+EIBAQQEAwICBDAN
BgkqhkiG9w0BAQUFAAOCAQEAZj9nQHg8ZKEXgXB4Uuts1vEfENnfRQ2si/sm1bxi
fLRNTSxu5uIKo7hyzEuCW0oSRItjDiNL9e7NCVbhcdutf+TuR0K/OyX91DrcDTRI
mi5nQA+vlAhkEGv/Zsp9TRnD5KbyXlK3uEZ9gestAAPbnOXRfL9flz4Elgtmy/KD
JpegvaG4NHOb3UK35jm2mg5oyaGAR5FoaMLmM0BWOwheG0dKqHFtsNRgtjTJWMQY
EBYkRJW9aA96WfNJMX83xiCLGri84juvNvO1L4DsgrWxVeHAjlJVUCm8kXZLTze5
dF6ppiYvIup17NaPLueCR0VTeckrkbalF4LB94sKqRFrTg==
-----END CERTIFICATE-----
